target datalayout = "e-m:e-p270:32:32-p271:32:32-p272:64:64-i64:64-i128:128-f80:128-n8:16:32:64-S128"
target triple = "x86_64-pc-linux-gnu"

%struct.Vec_Int_t_ = type { i32, i32, ptr }

; Function Attrs: inlinehint nounwind uwtable
define internal void @Vec_IntClear(ptr noundef %0) #3 {
  %2 = alloca ptr, align 8
  store ptr %0, ptr %2, align 8, !tbaa !74
  %3 = load ptr, ptr %2, align 8, !tbaa !74
  %4 = getelementptr inbounds nuw %struct.Vec_Int_t_, ptr %3, i32 0, i32 1
  store i32 0, ptr %4, align 4, !tbaa !75
  ret void
}

; Function Attrs: inlinehint nounwind uwtable
define internal void @Vec_IntWriteEntry(ptr noundef %0, i32 noundef %1, i32 noundef %2) #3 {
  %4 = alloca ptr, align 8
  %5 = alloca i32, align 4
  %6 = alloca i32, align 4
  store ptr %0, ptr %4, align 8, !tbaa !74
  store i32 %1, ptr %5, align 4, !tbaa !42
  store i32 %2, ptr %6, align 4, !tbaa !42
  %7 = load i32, ptr %6, align 4, !tbaa !42
  %8 = load ptr, ptr %4, align 8, !tbaa !74
  %9 = getelementptr inbounds nuw %struct.Vec_Int_t_, ptr %8, i32 0, i32 2
  %10 = load ptr, ptr %9, align 8, !tbaa !94
  %11 = load i32, ptr %5, align 4, !tbaa !42
  %12 = sext i32 %11 to i64
  %13 = getelementptr inbounds i32, ptr %10, i64 %12
  store i32 %7, ptr %13, align 4, !tbaa !42
  ret void
}

; Function Attrs: inlinehint nounwind uwtable
define internal i32 @Abc_LitIsCompl(i32 noundef %0) #3 {
  %2 = alloca i32, align 4
  store i32 %0, ptr %2, align 4, !tbaa !42
  %3 = load i32, ptr %2, align 4, !tbaa !42
  %4 = and i32 %3, 1
  ret i32 %4
}

; Function Attrs: inlinehint nounwind uwtable
define internal i32 @Abc_Lit2Var(i32 noundef %0) #3 {
  %2 = alloca i32, align 4
  store i32 %0, ptr %2, align 4, !tbaa !42
  %3 = load i32, ptr %2, align 4, !tbaa !42
  %4 = ashr i32 %3, 1
  ret i32 %4
}

; Function Attrs: inlinehint nounwind uwtable
define internal i32 @Abc_LitNotCond(i32 noundef %0, i32 noundef %1) #3 {
  %3 = alloca i32, align 4
  %4 = alloca i32, align 4
  store i32 %0, ptr %3, align 4, !tbaa !42
  store i32 %1, ptr %4, align 4, !tbaa !42
  %5 = load i32, ptr %3, align 4, !tbaa !42
  %6 = load i32, ptr %4, align 4, !tbaa !42
  %7 = icmp sgt i32 %6, 0
  %8 = zext i1 %7 to i32
  %9 = xor i32 %5, %8
  ret i32 %9
}

; Function Attrs: inlinehint nounwind uwtable
define internal i32 @Vec_IntEntry(ptr noundef %0, i32 noundef %1) #3 {
  %3 = alloca ptr, align 8
  %4 = alloca i32, align 4
  store ptr %0, ptr %3, align 8, !tbaa !74
  store i32 %1, ptr %4, align 4, !tbaa !42
  %5 = load ptr, ptr %3, align 8, !tbaa !74
  %6 = getelementptr inbounds nuw %struct.Vec_Int_t_, ptr %5, i32 0, i32 2
  %7 = load ptr, ptr %6, align 8, !tbaa !94
  %8 = load i32, ptr %4, align 4, !tbaa !42
  %9 = sext i32 %8 to i64
  %10 = getelementptr inbounds i32, ptr %7, i64 %9
  %11 = load i32, ptr %10, align 4, !tbaa !42
  ret i32 %11
}

; Function Attrs: inlinehint nounwind uwtable
define internal i32 @Vec_IntSize(ptr noundef %0) #3 {
  %2 = alloca ptr, align 8
  store ptr %0, ptr %2, align 8, !tbaa !74
  %3 = load ptr, ptr %2, align 8, !tbaa !74
  %4 = getelementptr inbounds nuw %struct.Vec_Int_t_, ptr %3, i32 0, i32 1
  %5 = load i32, ptr %4, align 4, !tbaa !75
  ret i32 %5
}

; Function Attrs: nounwind uwtable
define i32 @Gia_ManBuildFromMiniInt(ptr noundef %0, ptr noundef %1, ptr noundef %2, i32 noundef %3) #0 {
  %5 = alloca i32, align 4
  %6 = alloca ptr, align 8
  %7 = alloca ptr, align 8
  %8 = alloca ptr, align 8
  %9 = alloca i32, align 4
  %10 = alloca i32, align 4
  %11 = alloca i32, align 4
  %12 = alloca i32, align 4
  %13 = alloca i32, align 4
  %14 = alloca i32, align 4
  %15 = alloca i32, align 4
  %16 = alloca i32, align 4
  store ptr %0, ptr %6, align 8, !tbaa !40
  store ptr %1, ptr %7, align 8, !tbaa !74
  store ptr %2, ptr %8, align 8, !tbaa !74
  store i32 %3, ptr %9, align 4, !tbaa !42
  %17 = load ptr, ptr %8, align 8, !tbaa !74
  %18 = call i32 @Vec_IntSize(ptr noundef %17)
  %19 = icmp eq i32 %18, 1
  br i1 %19, label %20, label %23

20:                                               ; preds = %4
  %21 = load ptr, ptr %8, align 8, !tbaa !74
  %22 = call i32 @Vec_IntEntry(ptr noundef %21, i32 noundef 0)
  store i32 %22, ptr %5, align 4
  br label %129

23:                                               ; preds = %4
  %24 = load ptr, ptr %8, align 8, !tbaa !74
  %25 = call i32 @Vec_IntSize(ptr noundef %24)
  %26 = icmp eq i32 %25, 2
  br i1 %26, label %27, label %33

27:                                               ; preds = %23
  %28 = load ptr, ptr %7, align 8, !tbaa !74
  %29 = call i32 @Vec_IntEntry(ptr noundef %28, i32 noundef 0)
  %30 = load ptr, ptr %8, align 8, !tbaa !74
  %31 = call i32 @Vec_IntEntry(ptr noundef %30, i32 noundef 1)
  %32 = call i32 @Abc_LitNotCond(i32 noundef %29, i32 noundef %31)
  store i32 %32, ptr %5, align 4
  br label %129

33:                                               ; preds = %23
  call void @llvm.lifetime.start.p0(i64 4, ptr %10) #14
  %34 = load ptr, ptr %7, align 8, !tbaa !74
  %35 = call i32 @Vec_IntSize(ptr noundef %34)
  store i32 %35, ptr %10, align 4, !tbaa !42
  call void @llvm.lifetime.start.p0(i64 4, ptr %11) #14
  call void @llvm.lifetime.start.p0(i64 4, ptr %12) #14
  call void @llvm.lifetime.start.p0(i64 4, ptr %13) #14
  call void @llvm.lifetime.start.p0(i64 4, ptr %14) #14
  call void @llvm.lifetime.start.p0(i64 4, ptr %15) #14
  call void @llvm.lifetime.start.p0(i64 4, ptr %16) #14
  store i32 0, ptr %16, align 4, !tbaa !42
  store i32 0, ptr %11, align 4, !tbaa !42
  br label %36

36:                                               ; preds = %118, %33
  %37 = load i32, ptr %11, align 4, !tbaa !42
  %38 = add nsw i32 %37, 1
  %39 = load ptr, ptr %8, align 8, !tbaa !74
  %40 = call i32 @Vec_IntSize(ptr noundef %39)
  %41 = icmp slt i32 %38, %40
  br i1 %41, label %42, label %51

42:                                               ; preds = %36
  %43 = load ptr, ptr %8, align 8, !tbaa !74
  %44 = load i32, ptr %11, align 4, !tbaa !42
  %45 = call i32 @Vec_IntEntry(ptr noundef %43, i32 noundef %44)
  store i32 %45, ptr %14, align 4, !tbaa !42
  br i1 true, label %46, label %51

46:                                               ; preds = %42
  %47 = load ptr, ptr %8, align 8, !tbaa !74
  %48 = load i32, ptr %11, align 4, !tbaa !42
  %49 = add nsw i32 %48, 1
  %50 = call i32 @Vec_IntEntry(ptr noundef %47, i32 noundef %49)
  store i32 %50, ptr %15, align 4, !tbaa !42
  br label %51

51:                                               ; preds = %46, %42, %36
  %52 = phi i1 [ false, %42 ], [ false, %36 ], [ true, %46 ]
  br i1 %52, label %53, label %121

53:                                               ; preds = %51
  %54 = load i32, ptr %14, align 4, !tbaa !42
  %55 = call i32 @Abc_Lit2Var(i32 noundef %54)
  store i32 %55, ptr %12, align 4, !tbaa !42
  %56 = load i32, ptr %15, align 4, !tbaa !42
  %57 = call i32 @Abc_Lit2Var(i32 noundef %56)
  store i32 %57, ptr %13, align 4, !tbaa !42
  %58 = load i32, ptr %12, align 4, !tbaa !42
  %59 = load i32, ptr %10, align 4, !tbaa !42
  %60 = icmp slt i32 %58, %59
  br i1 %60, label %61, label %65

61:                                               ; preds = %53
  %62 = load ptr, ptr %7, align 8, !tbaa !74
  %63 = load i32, ptr %12, align 4, !tbaa !42
  %64 = call i32 @Vec_IntEntry(ptr noundef %62, i32 noundef %63)
  br label %71

65:                                               ; preds = %53
  %66 = load ptr, ptr %8, align 8, !tbaa !74
  %67 = load i32, ptr %12, align 4, !tbaa !42
  %68 = load i32, ptr %10, align 4, !tbaa !42
  %69 = sub nsw i32 %67, %68
  %70 = call i32 @Vec_IntEntry(ptr noundef %66, i32 noundef %69)
  br label %71

71:                                               ; preds = %65, %61
  %72 = phi i32 [ %64, %61 ], [ %70, %65 ]
  %73 = load i32, ptr %14, align 4, !tbaa !42
  %74 = call i32 @Abc_LitIsCompl(i32 noundef %73)
  %75 = call i32 @Abc_LitNotCond(i32 noundef %72, i32 noundef %74)
  store i32 %75, ptr %14, align 4, !tbaa !42
  %76 = load i32, ptr %13, align 4, !tbaa !42
  %77 = load i32, ptr %10, align 4, !tbaa !42
  %78 = icmp slt i32 %76, %77
  br i1 %78, label %79, label %83

79:                                               ; preds = %71
  %80 = load ptr, ptr %7, align 8, !tbaa !74
  %81 = load i32, ptr %13, align 4, !tbaa !42
  %82 = call i32 @Vec_IntEntry(ptr noundef %80, i32 noundef %81)
  br label %89

83:                                               ; preds = %71
  %84 = load ptr, ptr %8, align 8, !tbaa !74
  %85 = load i32, ptr %13, align 4, !tbaa !42
  %86 = load i32, ptr %10, align 4, !tbaa !42
  %87 = sub nsw i32 %85, %86
  %88 = call i32 @Vec_IntEntry(ptr noundef %84, i32 noundef %87)
  br label %89

89:                                               ; preds = %83, %79
  %90 = phi i32 [ %82, %79 ], [ %88, %83 ]
  %91 = load i32, ptr %15, align 4, !tbaa !42
  %92 = call i32 @Abc_LitIsCompl(i32 noundef %91)
  %93 = call i32 @Abc_LitNotCond(i32 noundef %90, i32 noundef %92)
  store i32 %93, ptr %15, align 4, !tbaa !42
  %94 = load i32, ptr %9, align 4, !tbaa !42
  %95 = icmp ne i32 %94, 0
  br i1 %95, label %96, label %101

96:                                               ; preds = %89
  %97 = load ptr, ptr %6, align 8, !tbaa !40
  %98 = load i32, ptr %14, align 4, !tbaa !42
  %99 = load i32, ptr %15, align 4, !tbaa !42
  %100 = call i32 @Gia_ManHashAnd(ptr noundef %97, i32 noundef %98, i32 noundef %99)
  store i32 %100, ptr %16, align 4, !tbaa !42
  br label %113

101:                                              ; preds = %89
  %102 = load i32, ptr %14, align 4, !tbaa !42
  %103 = load i32, ptr %15, align 4, !tbaa !42
  %104 = icmp eq i32 %102, %103
  br i1 %104, label %105, label %107

105:                                              ; preds = %101
  %106 = load i32, ptr %14, align 4, !tbaa !42
  store i32 %106, ptr %16, align 4, !tbaa !42
  br label %112

107:                                              ; preds = %101
  %108 = load ptr, ptr %6, align 8, !tbaa !40
  %109 = load i32, ptr %14, align 4, !tbaa !42
  %110 = load i32, ptr %15, align 4, !tbaa !42
  %111 = call i32 @Gia_ManAppendAnd(ptr noundef %108, i32 noundef %109, i32 noundef %110)
  store i32 %111, ptr %16, align 4, !tbaa !42
  br label %112

112:                                              ; preds = %107, %105
  br label %113

113:                                              ; preds = %112, %96
  %114 = load ptr, ptr %8, align 8, !tbaa !74
  %115 = load i32, ptr %11, align 4, !tbaa !42
  %116 = call i32 @Abc_Lit2Var(i32 noundef %115)
  %117 = load i32, ptr %16, align 4, !tbaa !42
  call void @Vec_IntWriteEntry(ptr noundef %114, i32 noundef %116, i32 noundef %117)
  br label %118

118:                                              ; preds = %113
  %119 = load i32, ptr %11, align 4, !tbaa !42
  %120 = add nsw i32 %119, 2
  store i32 %120, ptr %11, align 4, !tbaa !42
  br label %36, !llvm.loop !164

121:                                              ; preds = %51
  %122 = load i32, ptr %16, align 4, !tbaa !42
  %123 = load ptr, ptr %8, align 8, !tbaa !74
  %124 = load i32, ptr %11, align 4, !tbaa !42
  %125 = call i32 @Vec_IntEntry(ptr noundef %123, i32 noundef %124)
  %126 = call i32 @Abc_LitNotCond(i32 noundef %122, i32 noundef %125)
  store i32 %126, ptr %16, align 4, !tbaa !42
  %127 = load ptr, ptr %8, align 8, !tbaa !74
  call void @Vec_IntClear(ptr noundef %127)
  %128 = load i32, ptr %16, align 4, !tbaa !42
  store i32 %128, ptr %5, align 4
  call void @llvm.lifetime.end.p0(i64 4, ptr %16) #14
  call void @llvm.lifetime.end.p0(i64 4, ptr %15) #14
  call void @llvm.lifetime.end.p0(i64 4, ptr %14) #14
  call void @llvm.lifetime.end.p0(i64 4, ptr %13) #14
  call void @llvm.lifetime.end.p0(i64 4, ptr %12) #14
  call void @llvm.lifetime.end.p0(i64 4, ptr %11) #14
  call void @llvm.lifetime.end.p0(i64 4, ptr %10) #14
  br label %129

129:                                              ; preds = %121, %27, %20
  %130 = load i32, ptr %5, align 4
  ret i32 %130
}